Certificate:
    Data:
        Version: 3 (0x2)
        Serial Number: 0 (0x0)
        Signature Algorithm: sha256WithRSAEncryption
        Issuer: C=US, C=US, ST=CA, O=Springtail Inc., CN=Springtail Test Root CA, springtail.io
        Validity
            Not Before: Jan 15 23:43:34 2025 GMT
            Not After : Jan 15 23:43:34 2028 GMT
        Subject: C=US, C=US, ST=CA, O=Springtail Inc., CN=Springtail Test Root CA, springtail.io
        Subject Public Key Info:
            Public Key Algorithm: rsaEncryption
                Public-Key: (4096 bit)
                Modulus:
                    00:b3:3b:9d:9b:c4:16:e7:57:05:36:45:c6:96:8d:
                    b3:26:f0:96:d9:7d:be:2d:52:a5:78:71:df:ec:b5:
                    8e:c0:c2:c1:89:81:88:63:29:66:72:11:19:bb:f5:
                    8d:d6:bf:3f:f3:3a:d5:d2:0e:97:62:fb:72:49:e9:
                    b5:c3:3e:36:25:6a:d7:b2:09:6b:f5:02:9f:c7:4d:
                    e6:ba:ce:3d:0a:97:8a:7e:00:f3:80:39:28:a9:50:
                    e0:4d:d4:91:dc:37:df:10:4c:d8:d6:4b:44:5f:11:
                    f1:e4:74:a0:f7:34:57:6f:97:aa:03:a3:11:4c:0f:
                    21:71:bb:fb:2f:8c:a4:ed:3c:1f:d7:06:d3:6e:47:
                    42:ad:9f:f0:86:a3:d7:21:bb:ee:0f:b4:97:93:95:
                    c3:37:7a:58:d9:2d:a9:12:d7:2c:db:5f:68:02:2e:
                    a2:5d:9d:06:79:e1:6a:cb:56:22:4f:37:1f:29:96:
                    af:9c:bb:f8:c3:ab:bf:ec:05:86:b7:7c:89:b2:65:
                    b9:68:15:79:f4:74:1c:f1:e0:dd:05:df:f1:7c:a8:
                    47:c1:73:f9:a6:c3:93:1d:c2:d2:d6:b8:13:59:b0:
                    80:66:9c:25:f6:ec:2a:e2:51:53:f2:57:c4:30:1b:
                    40:c1:43:51:0d:8a:e7:a8:1a:bf:50:cc:e3:4c:19:
                    b3:40:b4:82:0e:e3:65:78:41:6a:f0:d5:3c:fc:63:
                    8c:f1:c7:60:fd:b9:38:2d:df:77:95:8e:11:35:38:
                    9c:f1:ec:80:da:c6:81:55:a0:10:75:1e:78:17:6e:
                    19:44:6f:55:1d:4d:96:0b:24:24:c1:f4:bc:0d:12:
                    aa:cc:ca:b7:a3:68:2e:7b:08:6a:86:ef:e5:7a:37:
                    cc:ac:c9:9d:7a:df:78:df:4e:c9:93:62:7e:e7:49:
                    f1:7e:13:bf:80:90:a2:d3:ee:c6:db:87:dc:e1:69:
                    79:66:ec:40:fb:20:08:17:87:83:12:3c:fe:bb:af:
                    c5:f0:8a:38:35:8e:83:69:b5:40:dd:23:56:67:a8:
                    b6:cc:ea:56:b4:c2:5f:1b:d1:f7:b5:9d:c9:a6:50:
                    9c:8c:23:21:55:c5:a3:d2:ad:85:24:49:25:a7:b5:
                    7a:49:14:4c:10:26:fb:e3:f5:ee:4e:ae:d3:01:9d:
                    1b:ea:69:2d:0f:c6:cf:44:8a:53:66:d5:88:25:60:
                    12:4f:50:35:80:c0:3a:6f:0f:d5:8c:77:8e:5a:8d:
                    5b:89:22:39:12:8f:d7:66:b7:eb:df:63:fb:e8:9c:
                    62:dc:bd:6c:b7:7c:d2:1f:f3:12:a4:70:0a:81:6f:
                    2d:61:be:ba:a8:2e:b7:88:06:9d:09:76:99:46:2e:
                    59:49:f9
                Exponent: 65537 (0x10001)
        X509v3 extensions:
            X509v3 Basic Constraints: critical
                CA:TRUE
            X509v3 Key Usage: critical
                Certificate Sign
            X509v3 Subject Key Identifier: 
                03:16:29:E2:A0:C0:AB:8D:45:ED:68:E7:1F:D5:1E:90:BE:FE:17:85
    Signature Algorithm: sha256WithRSAEncryption
    Signature Value:
        41:f0:03:3b:08:0a:94:ef:53:a4:b1:b8:9f:73:9a:c6:6d:2c:
        8a:6d:24:6a:9c:85:28:8a:cf:79:e3:f8:dd:98:6c:80:04:71:
        a6:f5:f4:b0:09:1c:4b:ba:98:bf:f8:c3:37:8e:88:5f:8c:f5:
        6d:72:c8:6c:ee:f9:74:15:d8:55:24:9e:c8:e7:8c:b2:4c:0a:
        4d:41:b4:f2:12:30:01:9b:46:f1:b1:c7:05:b4:a3:09:71:ae:
        47:7b:80:f1:41:ca:7e:0c:c4:1a:03:0a:80:54:97:9b:82:a8:
        8b:2c:f6:12:42:41:a5:ef:f6:c4:af:7c:4f:82:87:0b:f0:93:
        d0:1f:b6:19:79:68:e3:98:69:d8:85:4e:3d:5d:2b:f1:bb:c7:
        a8:aa:5d:a4:02:51:11:39:d0:e7:cb:4c:a9:4d:1a:29:48:03:
        4b:1f:0a:32:25:eb:92:79:64:9e:2a:75:4a:60:50:b9:97:52:
        dd:49:03:07:a2:95:fe:cb:b7:11:8f:5c:aa:54:2e:cc:7c:97:
        d0:3f:c2:06:cd:21:6d:d0:05:e9:ea:43:f2:38:ed:36:67:0f:
        22:31:dc:c2:f6:48:74:2f:39:da:55:cf:d3:ca:3c:7d:72:7b:
        0c:52:b1:48:71:62:aa:c4:5b:55:64:6e:6b:98:40:c5:f8:76:
        4c:1c:28:db:f4:d1:2d:a2:d5:11:18:64:95:3e:02:a4:ca:97:
        36:36:04:43:96:ce:a4:f2:c4:cd:db:14:14:53:fc:68:62:7f:
        80:59:77:96:5e:3b:8e:e1:7f:2e:bb:1b:1f:71:f3:98:d6:c1:
        03:72:6b:10:4c:a5:17:8c:b1:bb:a4:7b:94:89:3a:ca:6d:fd:
        98:75:46:6d:52:31:b1:66:d7:af:83:17:14:9a:6d:7e:fc:38:
        e4:1c:15:a4:f0:dc:f7:7a:fd:b6:53:b2:c7:3a:f7:f8:09:76:
        2c:e4:80:d4:34:b8:36:f5:ad:35:83:be:d3:5b:53:9e:da:87:
        ec:58:90:d1:3e:01:a3:55:e7:95:1a:3e:c9:cd:10:4f:a1:c2:
        62:15:55:73:df:4e:e5:82:a4:2f:4a:57:89:ef:1e:cb:cf:12:
        1c:03:db:d0:b4:8c:ec:58:b9:f8:ef:3c:2b:4a:34:97:74:20:
        c9:e6:52:df:a6:73:ee:1c:21:da:44:b8:ac:4c:1b:cd:ae:bb:
        3d:ad:b2:5f:e4:dd:df:9e:ca:6d:3b:b1:70:4c:68:33:39:46:
        9a:c4:b4:7d:2c:c9:ad:b2:c1:0c:b5:00:c1:d7:f4:2d:d5:00:
        c4:de:3c:1b:4f:c6:57:a2:cd:91:19:d7:5e:36:39:5b:60:b8:
        7a:9c:4d:db:87:6f:33:6c
-----BEGIN CERTIFICATE-----
MIIFoTCCA4mgAwIBAgIBADANBgkqhkiG9w0BAQsFADByMQswCQYDVQQGEwJVUzEL
MAkGA1UEBhMCVVMxCzAJBgNVBAgMAkNBMRgwFgYDVQQKDA9TcHJpbmd0YWlsIElu
Yy4xLzAtBgNVBAMMJlNwcmluZ3RhaWwgVGVzdCBSb290IENBLCBzcHJpbmd0YWls
LmlvMB4XDTI1MDExNTIzNDMzNFoXDTI4MDExNTIzNDMzNFowcjELMAkGA1UEBhMC
VVMxCzAJBgNVBAYTAlVTMQswCQYDVQQIDAJDQTEYMBYGA1UECgwPU3ByaW5ndGFp
bCBJbmMuMS8wLQYDVQQDDCZTcHJpbmd0YWlsIFRlc3QgUm9vdCBDQSwgc3ByaW5n
dGFpbC5pbzCCAiIwDQYJKoZIhvcNAQEBBQADggIPADCCAgoCggIBALM7nZvEFudX
BTZFxpaNsybwltl9vi1SpXhx3+y1jsDCwYmBiGMpZnIRGbv1jda/P/M61dIOl2L7
cknptcM+NiVq17IJa/UCn8dN5rrOPQqXin4A84A5KKlQ4E3Ukdw33xBM2NZLRF8R
8eR0oPc0V2+XqgOjEUwPIXG7+y+MpO08H9cG025HQq2f8Iaj1yG77g+0l5OVwzd6
WNktqRLXLNtfaAIuol2dBnnhastWIk83HymWr5y7+MOrv+wFhrd8ibJluWgVefR0
HPHg3QXf8XyoR8Fz+abDkx3C0ta4E1mwgGacJfbsKuJRU/JXxDAbQMFDUQ2K56ga
v1DM40wZs0C0gg7jZXhBavDVPPxjjPHHYP25OC3fd5WOETU4nPHsgNrGgVWgEHUe
eBduGURvVR1NlgskJMH0vA0SqszKt6NoLnsIaobv5Xo3zKzJnXrfeN9OyZNifudJ
8X4Tv4CQotPuxtuH3OFpeWbsQPsgCBeHgxI8/ruvxfCKODWOg2m1QN0jVmeotszq
VrTCXxvR97WdyaZQnIwjIVXFo9KthSRJJae1ekkUTBAm++P17k6u0wGdG+ppLQ/G
z0SKU2bViCVgEk9QNYDAOm8P1Yx3jlqNW4kiORKP12a3699j++icYty9bLd80h/z
EqRwCoFvLWG+uqgut4gGnQl2mUYuWUn5AgMBAAGjQjBAMA8GA1UdEwEB/wQFMAMB
Af8wDgYDVR0PAQH/BAQDAgIEMB0GA1UdDgQWBBQDFinioMCrjUXtaOcf1R6Qvv4X
hTANBgkqhkiG9w0BAQsFAAOCAgEAQfADOwgKlO9TpLG4n3Oaxm0sim0kapyFKIrP
eeP43ZhsgARxpvX0sAkcS7qYv/jDN46IX4z1bXLIbO75dBXYVSSeyOeMskwKTUG0
8hIwAZtG8bHHBbSjCXGuR3uA8UHKfgzEGgMKgFSXm4Koiyz2EkJBpe/2xK98T4KH
C/CT0B+2GXlo45hp2IVOPV0r8bvHqKpdpAJRETnQ58tMqU0aKUgDSx8KMiXrknlk
nip1SmBQuZdS3UkDB6KV/su3EY9cqlQuzHyX0D/CBs0hbdAF6epD8jjtNmcPIjHc
wvZIdC852lXP08o8fXJ7DFKxSHFiqsRbVWRua5hAxfh2TBwo2/TRLaLVERhklT4C
pMqXNjYEQ5bOpPLEzdsUFFP8aGJ/gFl3ll47juF/LrsbH3HzmNbBA3JrEEylF4yx
u6R7lIk6ym39mHVGbVIxsWbXr4MXFJptfvw45BwVpPDc93r9tlOyxzr3+Al2LOSA
1DS4NvWtNYO+01tTntqH7FiQ0T4Bo1XnlRo+yc0QT6HCYhVVc99O5YKkL0pXie8e
y88SHAPb0LSM7Fi5+O88K0o0l3QgyeZS36Zz7hwh2kS4rEwbza67Pa2yX+Td357K
bTuxcExoMzlGmsS0fSzJrbLBDLUAwdf0LdUAxN48G0/GV6LNkRnXXjY5W2C4epxN
24dvM2w=
-----END CERTIFICATE-----
