Certificate:
    Data:
        Version: 3 (0x2)
        Serial Number: 1 (0x1)
        Signature Algorithm: sha256WithRSAEncryption
        Issuer: C=US, C=US, ST=CA, O=Springtail Inc., CN=Springtail Test Root CA, springtail.io
        Validity
            Not Before: Jan 15 23:43:34 2025 GMT
            Not After : Jan 15 23:43:34 2027 GMT
        Subject: C=US, C=US, ST=CA, O=Springtail Inc., CN=Springtail Test Intermediate CA, springtail.io
        Subject Public Key Info:
            Public Key Algorithm: rsaEncryption
                Public-Key: (4096 bit)
                Modulus:
                    00:cd:db:af:12:5e:fd:ff:49:64:5c:20:f0:99:e6:
                    f9:5d:58:8f:db:56:d6:ec:7f:ec:51:53:d3:66:0f:
                    b4:93:1e:e4:a5:a2:a7:72:f0:4f:b2:61:b4:5a:16:
                    2d:9b:88:d1:ed:e0:31:2c:25:d9:f4:0c:9c:b3:7e:
                    60:a9:f6:8a:77:a5:82:22:8b:29:e8:82:64:c7:e1:
                    db:1b:3d:61:96:3b:60:4a:07:aa:9f:5c:da:46:a0:
                    a0:5e:5f:3a:2b:a0:95:24:a8:a5:93:ed:18:94:a7:
                    56:4f:54:bb:e8:84:70:02:b2:82:08:bb:74:04:56:
                    e9:19:fe:77:19:72:9a:40:6d:ff:cf:88:50:65:9a:
                    6e:ff:bf:14:56:3a:11:64:19:e0:38:07:71:b1:16:
                    e8:71:a1:0c:e0:80:9a:fd:73:41:e6:0e:33:58:14:
                    89:32:cb:cf:c1:5b:86:fb:83:d7:3f:84:93:13:4e:
                    0e:28:90:a9:94:69:72:5c:77:7f:ae:b3:9a:88:da:
                    19:53:b7:7d:dd:16:d4:2b:a8:ce:e4:55:d6:e2:d1:
                    cf:75:bc:64:49:b5:cd:a1:43:20:b2:81:db:74:09:
                    c8:ec:a2:30:2d:94:96:64:d1:e0:f3:3c:9b:f2:81:
                    c3:cd:0d:30:5d:74:5a:fe:3a:ef:3b:e5:70:fa:62:
                    9e:e9:63:9d:e2:da:25:3d:c5:7e:2b:36:14:ea:1d:
                    e6:28:de:af:6e:e4:86:a1:cf:31:50:8b:77:f8:1d:
                    a2:06:cc:76:cc:6a:68:de:c2:f9:5c:e8:b2:96:a9:
                    73:53:8c:9a:5b:7f:f1:d7:0c:3f:0a:d9:07:17:48:
                    df:bb:6f:03:32:c2:fc:b3:66:b9:2b:7f:bd:9a:60:
                    d6:f1:e1:53:de:b8:29:7e:a6:7b:83:25:a1:d8:71:
                    29:18:3d:15:e5:5b:96:a2:f8:f1:b2:52:a6:97:f8:
                    82:4c:0c:94:41:4f:6d:1a:0b:30:f8:b9:d9:0c:1f:
                    08:d7:6d:0f:c8:f9:fc:6a:1e:06:38:a2:ed:3e:48:
                    e9:0d:a8:58:43:9d:d9:a0:52:60:e3:c6:84:40:96:
                    e6:06:47:d6:89:68:dd:26:70:ea:5d:f8:e5:ed:5b:
                    05:4a:d5:b9:f9:18:40:b0:c0:81:4f:35:cd:59:7c:
                    0d:e5:30:ae:1f:67:b2:1f:3e:e8:3f:81:15:66:89:
                    ed:c2:8e:fc:ea:a6:8a:bc:13:d8:59:cb:e9:09:3f:
                    0e:3c:31:12:4b:e8:68:6d:05:48:84:c0:39:e0:df:
                    b9:88:f3:3a:2d:de:01:69:d3:c8:07:1d:f1:a7:af:
                    12:3e:d2:05:76:ab:1a:f8:81:1c:66:9e:0e:35:86:
                    70:12:3b
                Exponent: 65537 (0x10001)
        X509v3 extensions:
            X509v3 Basic Constraints: critical
                CA:TRUE
            X509v3 Key Usage: critical
                Certificate Sign
            X509v3 Subject Key Identifier: 
                F9:6D:AD:18:C9:E2:2C:06:0A:40:DC:33:63:46:B3:DA:66:67:F7:5F
            X509v3 Authority Key Identifier: 
                03:16:29:E2:A0:C0:AB:8D:45:ED:68:E7:1F:D5:1E:90:BE:FE:17:85
    Signature Algorithm: sha256WithRSAEncryption
    Signature Value:
        65:da:fe:c8:c6:6d:b9:6f:0a:98:13:49:4d:f4:17:cb:7f:5c:
        51:7d:44:34:72:49:08:f1:c5:44:bc:c8:db:fb:5b:1e:a7:1b:
        10:39:eb:3a:2b:9f:49:9c:bf:fd:49:be:9d:4f:80:10:b0:75:
        d1:80:0e:7a:0d:11:71:ac:5a:93:b4:fe:d5:05:30:bc:65:e5:
        13:67:b6:f1:07:cc:de:36:56:22:6e:5a:59:06:ac:1f:7d:30:
        1c:4c:13:6b:84:e0:4c:21:75:ff:09:58:20:a0:0d:62:5f:a3:
        a5:c6:14:5a:6f:10:ba:8f:64:f3:25:81:3d:50:98:00:57:27:
        23:24:2d:6f:3e:24:a3:27:98:c9:8b:0e:e8:51:d8:f1:6b:d8:
        67:a2:84:62:a4:3f:14:cd:94:ee:26:3d:c6:19:77:31:a4:5a:
        f6:f8:a8:05:57:d7:34:e6:32:4b:88:dc:84:bf:09:33:2a:61:
        6a:a2:e4:b0:36:2e:ee:53:c7:0a:dc:97:02:d1:e9:89:a1:75:
        ec:32:b4:93:4a:51:c1:c7:82:d8:71:d6:5d:5c:c8:3e:2f:89:
        35:9c:a7:b6:03:e8:cc:72:db:3e:d5:49:22:f0:11:65:de:a8:
        29:44:8b:5b:10:d9:c9:1f:49:81:13:f1:37:bc:81:e7:f4:91:
        90:18:79:42:dc:95:83:61:e9:0e:3c:10:aa:8b:83:fe:50:3f:
        af:cc:ac:78:6b:0f:48:12:f7:b7:bc:f9:42:4a:15:12:ee:10:
        5b:28:39:3a:7c:3a:8c:79:c3:7d:40:4e:f3:fb:13:70:e1:f1:
        23:81:f1:bb:5a:2e:e8:59:ec:b0:df:08:67:b0:d4:8f:90:2c:
        e2:3f:56:bd:04:31:38:19:3c:de:e9:61:10:bf:78:e5:a6:e0:
        2b:67:56:51:b7:ae:e3:20:c5:23:0c:5f:63:57:cf:c5:4b:28:
        7c:00:94:b9:bd:45:64:7d:0b:c3:0d:7f:52:c6:48:d4:46:9e:
        b4:7e:ce:bd:9d:e1:74:ed:02:11:a0:72:31:ff:50:2d:99:a2:
        53:b9:bf:30:54:0f:79:55:e4:a9:59:c5:6e:3e:2c:62:db:6d:
        e3:62:f0:9f:6b:8c:02:5f:d1:e8:98:12:53:c7:f6:b3:de:93:
        e2:e2:1a:1c:e0:8e:bd:d7:98:56:38:17:9b:e9:42:78:02:e6:
        a9:da:c8:06:a0:15:d3:00:24:29:e4:c0:7c:10:3a:9a:43:a8:
        18:96:18:7d:f0:b0:d9:a1:82:2f:bc:23:e3:6c:ae:45:2c:56:
        ea:57:a1:77:17:50:7a:40:39:73:62:d3:88:c0:1c:cc:24:a6:
        3c:d4:ba:0a:23:92:61:64
-----BEGIN CERTIFICATE-----
MIIFyjCCA7KgAwIBAgIBATANBgkqhkiG9w0BAQsFADByMQswCQYDVQQGEwJVUzEL
MAkGA1UEBhMCVVMxCzAJBgNVBAgMAkNBMRgwFgYDVQQKDA9TcHJpbmd0YWlsIElu
Yy4xLzAtBgNVBAMMJlNwcmluZ3RhaWwgVGVzdCBSb290IENBLCBzcHJpbmd0YWls
LmlvMB4XDTI1MDExNTIzNDMzNFoXDTI3MDExNTIzNDMzNFowejELMAkGA1UEBhMC
VVMxCzAJBgNVBAYTAlVTMQswCQYDVQQIDAJDQTEYMBYGA1UECgwPU3ByaW5ndGFp
bCBJbmMuMTcwNQYDVQQDDC5TcHJpbmd0YWlsIFRlc3QgSW50ZXJtZWRpYXRlIENB
LCBzcHJpbmd0YWlsLmlvMIICIjANBgkqhkiG9w0BAQEFAAOCAg8AMIICCgKCAgEA
zduvEl79/0lkXCDwmeb5XViP21bW7H/sUVPTZg+0kx7kpaKncvBPsmG0WhYtm4jR
7eAxLCXZ9Aycs35gqfaKd6WCIosp6IJkx+HbGz1hljtgSgeqn1zaRqCgXl86K6CV
JKilk+0YlKdWT1S76IRwArKCCLt0BFbpGf53GXKaQG3/z4hQZZpu/78UVjoRZBng
OAdxsRbocaEM4ICa/XNB5g4zWBSJMsvPwVuG+4PXP4STE04OKJCplGlyXHd/rrOa
iNoZU7d93RbUK6jO5FXW4tHPdbxkSbXNoUMgsoHbdAnI7KIwLZSWZNHg8zyb8oHD
zQ0wXXRa/jrvO+Vw+mKe6WOd4tolPcV+KzYU6h3mKN6vbuSGoc8xUIt3+B2iBsx2
zGpo3sL5XOiylqlzU4yaW3/x1ww/CtkHF0jfu28DMsL8s2a5K3+9mmDW8eFT3rgp
fqZ7gyWh2HEpGD0V5VuWovjxslKml/iCTAyUQU9tGgsw+LnZDB8I120PyPn8ah4G
OKLtPkjpDahYQ53ZoFJg48aEQJbmBkfWiWjdJnDqXfjl7VsFStW5+RhAsMCBTzXN
WXwN5TCuH2eyHz7oP4EVZontwo786qaKvBPYWcvpCT8OPDESS+hobQVIhMA54N+5
iPM6Ld4BadPIBx3xp68SPtIFdqsa+IEcZp4ONYZwEjsCAwEAAaNjMGEwDwYDVR0T
AQH/BAUwAwEB/zAOBgNVHQ8BAf8EBAMCAgQwHQYDVR0OBBYEFPltrRjJ4iwGCkDc
M2NGs9pmZ/dfMB8GA1UdIwQYMBaAFAMWKeKgwKuNRe1o5x/VHpC+/heFMA0GCSqG
SIb3DQEBCwUAA4ICAQBl2v7Ixm25bwqYE0lN9BfLf1xRfUQ0ckkI8cVEvMjb+1se
pxsQOes6K59JnL/9Sb6dT4AQsHXRgA56DRFxrFqTtP7VBTC8ZeUTZ7bxB8zeNlYi
blpZBqwffTAcTBNrhOBMIXX/CVggoA1iX6OlxhRabxC6j2TzJYE9UJgAVycjJC1v
PiSjJ5jJiw7oUdjxa9hnooRipD8UzZTuJj3GGXcxpFr2+KgFV9c05jJLiNyEvwkz
KmFqouSwNi7uU8cK3JcC0emJoXXsMrSTSlHBx4LYcdZdXMg+L4k1nKe2A+jMcts+
1Uki8BFl3qgpRItbENnJH0mBE/E3vIHn9JGQGHlC3JWDYekOPBCqi4P+UD+vzKx4
aw9IEve3vPlCShUS7hBbKDk6fDqMecN9QE7z+xNw4fEjgfG7Wi7oWeyw3whnsNSP
kCziP1a9BDE4GTze6WEQv3jlpuArZ1ZRt67jIMUjDF9jV8/FSyh8AJS5vUVkfQvD
DX9SxkjURp60fs69neF07QIRoHIx/1AtmaJTub8wVA95VeSpWcVuPixi223jYvCf
a4wCX9HomBJTx/az3pPi4hoc4I6915hWOBeb6UJ4Auap2sgGoBXTACQp5MB8EDqa
Q6gYlhh98LDZoYIvvCPjbK5FLFbqV6F3F1B6QDlzYtOIwBzMJKY81LoKI5JhZA==
-----END CERTIFICATE-----
