Certificate:
    Data:
        Version: 1 (0x0)
        Serial Number: 0 (0x0)
        Signature Algorithm: sha256WithRSAEncryption
        Issuer: C=US, C=US, ST=CA, O=Springtail Inc., CN=Springtail Test Intermediate CA, springtail.io
        Validity
            Not Before: Jan 15 23:43:35 2025 GMT
            Not After : Jan 15 23:43:35 2026 GMT
        Subject: C=US, C=US, ST=CA, O=Springtail Inc., CN=Springtail Test Leaf Client, springtail.io
        Subject Public Key Info:
            Public Key Algorithm: rsaEncryption
                Public-Key: (4096 bit)
                Modulus:
                    00:ac:df:01:96:0c:b3:96:b2:87:fd:6e:97:e4:fe:
                    c0:a7:63:21:c5:1c:a1:58:a1:98:ab:f1:77:cb:54:
                    ad:c4:d6:ab:36:d4:81:c7:d9:be:88:03:8c:f9:54:
                    a1:0c:d6:4b:ee:82:ac:d5:33:74:db:bc:42:a0:0b:
                    7d:97:d7:10:a0:16:3a:a8:37:e0:39:c5:15:5e:67:
                    40:75:f5:7f:a5:69:03:a3:98:89:26:82:89:b7:f0:
                    21:2d:57:33:ff:b9:8c:02:4a:71:32:a2:48:57:e9:
                    2c:21:7a:4a:ab:97:f6:f8:00:17:37:50:2b:f8:50:
                    a5:e0:65:28:11:f4:2c:68:2d:c6:4f:a4:04:95:bb:
                    63:2d:90:db:b6:84:ff:6f:17:38:1b:75:f8:56:d0:
                    ee:05:08:17:e6:70:f9:37:f8:2d:95:62:c5:59:d3:
                    d5:7b:09:a6:55:11:f4:08:cf:2a:19:b0:4a:1a:74:
                    79:b3:0b:8f:7b:20:99:6e:ea:1c:f3:0a:a3:5f:f5:
                    37:bb:50:b5:3b:bb:53:21:9e:3d:12:d8:c0:cc:a3:
                    d7:58:68:01:92:50:d4:d8:d1:d7:c0:c2:e5:d7:a3:
                    d9:e0:16:da:a2:8b:63:f8:31:bb:47:6c:e0:cd:6a:
                    1c:7c:9f:42:a1:e4:53:cc:24:67:49:f4:2c:cc:e9:
                    d7:70:7f:1f:a7:9f:8e:ad:db:ad:c2:79:84:38:3d:
                    98:f4:41:4a:e4:61:96:d8:29:f3:e3:48:33:e0:ee:
                    5b:7a:a6:e8:29:ba:12:50:7e:f8:47:76:62:8e:96:
                    16:78:e1:6f:77:2f:f7:7f:6b:9a:06:7a:29:3d:0c:
                    8c:cc:a9:ba:29:c5:91:bd:d0:f2:4a:ed:82:5b:7d:
                    5a:a7:37:ff:1b:7e:37:db:6b:7f:0f:e0:49:cc:3a:
                    eb:2f:78:72:a9:84:d0:69:e7:17:a2:40:77:b6:9c:
                    d6:38:ca:54:82:f8:34:d4:c0:25:9d:f7:6c:0d:a5:
                    8d:d8:ec:b6:07:e4:f3:94:f6:c7:0d:9c:fa:9d:b5:
                    1a:24:0b:0c:01:7b:aa:d9:79:dc:36:b4:f4:43:99:
                    de:52:a6:89:d7:e0:fc:da:42:1a:e1:0e:86:92:97:
                    92:39:9c:44:f9:4a:af:11:02:aa:50:d5:35:5d:de:
                    2d:9e:24:a3:ca:5f:5a:e2:f7:54:60:00:5c:44:61:
                    d6:91:53:8e:39:eb:65:54:7d:e7:e6:9b:a5:6f:91:
                    8c:ad:40:3b:b4:25:8d:a0:54:70:46:36:f7:a7:4e:
                    86:e5:ba:b5:c7:05:dd:e0:cf:71:f6:48:b5:d1:ee:
                    e7:d4:94:01:0f:3e:e9:3c:31:e1:83:a5:74:a2:e5:
                    09:6b:97
                Exponent: 65537 (0x10001)
    Signature Algorithm: sha256WithRSAEncryption
    Signature Value:
        3b:4e:8f:07:27:bf:4d:da:e6:d6:71:86:d9:66:41:f4:ea:37:
        ac:58:ff:61:77:0c:3b:31:77:bc:36:b1:ca:0a:87:2d:2b:9a:
        a6:f2:a2:ce:72:5f:f3:47:b3:0b:0d:27:fa:8b:11:a3:1f:04:
        3f:f9:0a:d0:32:64:0f:e7:c1:10:00:ba:5a:ab:b5:16:71:4e:
        61:82:fe:03:85:4a:76:d5:3b:70:4e:64:38:98:16:c8:4f:51:
        77:92:a2:ef:82:b3:50:ed:1b:ba:80:a2:06:13:7f:31:bf:0c:
        69:db:c9:38:bd:ee:c7:3a:f8:6a:8d:05:14:19:d3:91:d1:d1:
        d0:17:0c:5e:80:d8:82:ed:81:53:0e:04:75:d6:10:10:85:4b:
        cf:70:e4:f9:b4:5b:e1:63:64:dd:3f:99:5d:c5:f3:4b:f6:be:
        66:60:e1:b8:41:98:ef:b8:ba:c5:26:26:bf:70:eb:d9:d5:e1:
        a1:ac:cb:71:67:18:e8:2a:cb:91:8f:5e:5d:ef:60:92:39:b9:
        da:7e:3e:bc:e3:75:1a:f1:37:ea:f5:41:30:d9:d1:3c:6b:4a:
        95:6b:5f:77:7b:39:59:fe:99:e1:bf:8a:db:49:f4:af:d5:50:
        3c:02:7c:24:e8:e4:de:bd:54:c9:3e:fe:89:2f:0a:af:ac:41:
        0c:ef:f9:67:17:5f:d7:df:da:27:20:f1:7e:0b:f7:08:2b:93:
        15:de:a2:2b:07:40:6f:56:56:fb:0f:85:cd:ec:ac:45:73:78:
        bd:73:88:aa:6d:97:ff:76:13:9c:2c:7e:e3:e8:c3:a4:bb:f8:
        cc:47:b4:48:17:99:7a:20:b9:65:4e:1e:63:a8:8c:17:31:74:
        86:ac:2d:55:4b:d4:aa:71:2c:06:56:8e:13:9a:cd:56:fc:8e:
        02:81:4f:9d:e2:1f:da:7d:7c:49:b6:9b:d8:48:bc:51:6c:c4:
        2e:c7:bc:2e:8f:c7:cd:7e:e7:e3:08:b8:78:65:03:61:8d:12:
        da:e6:1a:4b:1a:e1:fb:1e:58:80:2d:5c:39:10:b5:e4:e1:bd:
        20:4a:8e:4a:2a:a6:b6:4d:02:60:84:6d:3e:ee:39:95:91:e0:
        45:1b:80:e6:6a:a1:ed:b3:ea:bf:1a:32:0a:97:a1:32:e0:d4:
        6f:02:5e:87:09:8f:d6:15:00:16:2e:f7:e4:03:fd:0a:fc:ca:
        98:86:2b:c4:f2:70:e9:41:98:1a:a3:53:f2:14:0c:4f:54:6c:
        74:60:28:f3:fa:2d:a2:2e:23:e5:2c:6f:97:ef:67:fb:d8:8e:
        0b:ec:d8:0b:91:9f:47:7f:b8:f6:68:76:80:ad:5a:a1:e9:91:
        14:bd:a2:a0:65:e3:bf:1a
-----BEGIN CERTIFICATE-----
MIIFZDCCA0wCAQAwDQYJKoZIhvcNAQELBQAwejELMAkGA1UEBhMCVVMxCzAJBgNV
BAYTAlVTMQswCQYDVQQIDAJDQTEYMBYGA1UECgwPU3ByaW5ndGFpbCBJbmMuMTcw
NQYDVQQDDC5TcHJpbmd0YWlsIFRlc3QgSW50ZXJtZWRpYXRlIENBLCBzcHJpbmd0
YWlsLmlvMB4XDTI1MDExNTIzNDMzNVoXDTI2MDExNTIzNDMzNVowdjELMAkGA1UE
BhMCVVMxCzAJBgNVBAYTAlVTMQswCQYDVQQIDAJDQTEYMBYGA1UECgwPU3ByaW5n
dGFpbCBJbmMuMTMwMQYDVQQDDCpTcHJpbmd0YWlsIFRlc3QgTGVhZiBDbGllbnQs
IHNwcmluZ3RhaWwuaW8wggIiMA0GCSqGSIb3DQEBAQUAA4ICDwAwggIKAoICAQCs
3wGWDLOWsof9bpfk/sCnYyHFHKFYoZir8XfLVK3E1qs21IHH2b6IA4z5VKEM1kvu
gqzVM3TbvEKgC32X1xCgFjqoN+A5xRVeZ0B19X+laQOjmIkmgom38CEtVzP/uYwC
SnEyokhX6Swhekqrl/b4ABc3UCv4UKXgZSgR9CxoLcZPpASVu2MtkNu2hP9vFzgb
dfhW0O4FCBfmcPk3+C2VYsVZ09V7CaZVEfQIzyoZsEoadHmzC497IJlu6hzzCqNf
9Te7ULU7u1Mhnj0S2MDMo9dYaAGSUNTY0dfAwuXXo9ngFtqii2P4MbtHbODNahx8
n0Kh5FPMJGdJ9CzM6ddwfx+nn46t263CeYQ4PZj0QUrkYZbYKfPjSDPg7lt6pugp
uhJQfvhHdmKOlhZ44W93L/d/a5oGeik9DIzMqbopxZG90PJK7YJbfVqnN/8bfjfb
a38P4EnMOusveHKphNBp5xeiQHe2nNY4ylSC+DTUwCWd92wNpY3Y7LYH5POU9scN
nPqdtRokCwwBe6rZedw2tPRDmd5SponX4PzaQhrhDoaSl5I5nET5Sq8RAqpQ1TVd
3i2eJKPKX1ri91RgAFxEYdaRU44562VUfefmm6VvkYytQDu0JY2gVHBGNvenTobl
urXHBd3gz3H2SLXR7ufUlAEPPuk8MeGDpXSi5QlrlwIDAQABMA0GCSqGSIb3DQEB
CwUAA4ICAQA7To8HJ79N2ubWcYbZZkH06jesWP9hdww7MXe8NrHKCoctK5qm8qLO
cl/zR7MLDSf6ixGjHwQ/+QrQMmQP58EQALpaq7UWcU5hgv4DhUp21TtwTmQ4mBbI
T1F3kqLvgrNQ7Ru6gKIGE38xvwxp28k4ve7HOvhqjQUUGdOR0dHQFwxegNiC7YFT
DgR11hAQhUvPcOT5tFvhY2TdP5ldxfNL9r5mYOG4QZjvuLrFJia/cOvZ1eGhrMtx
ZxjoKsuRj15d72CSObnafj6843Ua8Tfq9UEw2dE8a0qVa193ezlZ/pnhv4rbSfSv
1VA8Anwk6OTevVTJPv6JLwqvrEEM7/lnF1/X39onIPF+C/cIK5MV3qIrB0BvVlb7
D4XN7KxFc3i9c4iqbZf/dhOcLH7j6MOku/jMR7RIF5l6ILllTh5jqIwXMXSGrC1V
S9SqcSwGVo4Tms1W/I4CgU+d4h/afXxJtpvYSLxRbMQux7wuj8fNfufjCLh4ZQNh
jRLa5hpLGuH7HliALVw5ELXk4b0gSo5KKqa2TQJghG0+7jmVkeBFG4DmaqHts+q/
GjIKl6Ey4NRvAl6HCY/WFQAWLvfkA/0K/MqYhivE8nDpQZgao1PyFAxPVGx0YCjz
+i2iLiPlLG+X72f72I4L7NgLkZ9Hf7j2aHaArVqh6ZEUvaKgZeO/Gg==
-----END CERTIFICATE-----
