Certificate:
    Data:
        Version: 1 (0x0)
        Serial Number: 1 (0x1)
        Signature Algorithm: sha256WithRSAEncryption
        Issuer: C=US, C=US, ST=CA, O=Springtail Inc., CN=Springtail Test Intermediate CA, springtail.io
        Validity
            Not Before: Jan 15 23:43:36 2025 GMT
            Not After : Jan 15 23:43:36 2026 GMT
        Subject: C=US, C=US, ST=CA, O=Springtail Inc., CN=Springtail Test Leaf Server, springtail.io
        Subject Public Key Info:
            Public Key Algorithm: rsaEncryption
                Public-Key: (4096 bit)
                Modulus:
                    00:c6:b2:08:e1:43:b8:ce:23:3b:0e:69:ec:da:f2:
                    f3:47:8a:7e:88:fb:e6:d5:60:80:97:30:0e:75:2f:
                    e4:38:dc:40:35:f6:79:b0:d1:1c:01:c9:1e:94:fe:
                    9b:04:0e:1e:8b:95:dc:56:db:c4:ce:0a:3c:bf:89:
                    81:ae:ca:31:d6:0a:33:58:4b:29:d4:42:f7:de:4d:
                    98:17:53:a4:c6:ba:6c:5a:33:09:28:b2:70:50:66:
                    01:f4:e4:eb:d6:d7:78:91:3c:26:c9:cc:f3:f8:da:
                    c1:fd:8f:a4:00:40:b6:92:40:51:e3:d6:ee:49:65:
                    19:fc:50:10:f1:cf:a9:2e:76:fe:87:05:8f:2f:06:
                    da:90:9c:ca:7e:d5:e4:5f:da:ab:2a:c0:5b:9a:eb:
                    50:74:4a:48:c2:66:b8:f9:5f:3c:2a:80:b0:4f:37:
                    c1:7f:5a:63:f6:37:0e:29:5f:2f:19:0e:4c:48:86:
                    3a:8b:4d:c1:ca:6f:9f:5f:e5:b3:87:b6:9c:09:c4:
                    04:c0:8c:57:4f:c4:4d:86:e9:4a:25:00:7e:af:96:
                    d6:8f:5e:77:7a:c6:17:99:08:ff:66:27:2a:39:c5:
                    8e:98:49:3f:81:fa:da:43:0a:80:5a:b5:f5:71:dc:
                    0b:1e:bc:31:55:0b:3d:f8:70:79:db:20:84:06:fb:
                    12:c4:9f:a4:2d:6d:88:25:39:18:52:5e:8a:ec:01:
                    77:af:97:10:41:31:c2:ea:0b:d7:58:d0:df:1b:47:
                    ef:10:6e:4d:71:bc:13:d8:95:12:ce:db:00:f8:9c:
                    7f:26:5f:9b:4a:28:63:e3:15:90:67:a6:e9:94:b2:
                    cc:74:fb:b0:1b:77:65:c0:e5:22:f8:3e:c1:cc:4c:
                    82:69:88:e8:9c:e9:59:2a:d5:38:8d:81:27:2c:3b:
                    88:48:99:d7:e4:48:e2:86:2e:74:9f:b5:ee:61:88:
                    6b:56:d1:db:e3:f4:2b:da:72:9d:bd:1b:7b:91:84:
                    7b:bd:36:b0:8a:ca:99:55:b6:32:93:ef:17:f1:af:
                    a8:65:1f:90:66:4a:2b:c4:0d:9a:aa:98:db:ac:20:
                    ba:81:71:94:2a:ac:0b:59:2f:6d:77:06:af:4b:d3:
                    56:c7:3c:8f:cc:19:6f:56:3a:eb:72:22:a1:48:dd:
                    a6:de:09:cb:52:e9:dd:86:22:f4:ab:68:3c:ce:47:
                    48:62:94:e6:a4:c3:08:c7:1c:9f:ac:5d:c3:94:2e:
                    df:e3:5b:56:28:11:8f:73:96:5d:25:a9:f0:ab:2d:
                    33:17:7f:35:9a:33:aa:99:eb:19:03:66:3c:d6:f8:
                    e2:66:0e:db:76:3a:ea:d3:7d:dd:1a:02:7b:4f:d4:
                    72:b9:b7
                Exponent: 65537 (0x10001)
    Signature Algorithm: sha256WithRSAEncryption
    Signature Value:
        b7:3f:b8:4b:1d:da:01:f9:c1:76:ab:ee:fe:0b:62:cd:0b:91:
        75:8d:87:74:fc:41:e6:5b:05:9a:14:73:c9:10:47:73:28:bd:
        50:2e:25:20:bd:ca:a4:29:af:bd:93:eb:37:49:74:f5:71:75:
        e4:1a:86:34:07:f6:96:d0:69:12:fe:77:38:f4:77:c9:c1:d7:
        78:47:98:20:46:cc:36:3f:9d:f6:4c:33:c5:69:ee:35:03:93:
        f2:af:7c:6b:d6:c6:68:cc:cc:df:8d:7f:94:b3:3d:ad:02:57:
        c6:ad:24:fa:a2:15:a5:ea:b5:cf:df:f6:de:62:3e:10:69:19:
        82:a4:04:15:b8:e7:45:01:ec:07:e1:cb:23:23:0d:80:bb:bf:
        fc:24:bb:11:61:13:55:6f:b0:b3:51:fa:2d:5f:f6:28:b0:aa:
        d6:f9:2d:92:4b:2f:76:e0:ab:a2:e7:b2:93:e5:19:d2:7d:99:
        f1:8d:ca:4d:94:d0:a4:82:73:e3:1c:d6:1a:8b:11:10:df:cc:
        c8:84:d0:bd:d9:f8:02:a5:56:ba:2f:2f:95:39:ce:94:b1:04:
        d6:55:40:d4:d7:3a:53:c0:9e:e8:c9:72:94:16:90:42:ff:2c:
        cc:f0:9b:ce:78:f8:e0:37:d6:b9:83:be:0d:93:96:d0:d7:c3:
        e4:8f:49:55:e5:2c:fc:2e:1f:4c:1e:e9:10:4b:1c:d3:8a:d0:
        ea:2f:46:49:45:dd:a5:4f:00:1e:b8:8b:96:20:df:8c:5a:ac:
        1d:0d:20:75:b8:34:ce:55:1d:5e:be:7d:da:07:b9:fd:d8:19:
        56:32:70:a4:48:2a:39:8b:a1:39:3c:a9:cf:d8:c6:02:30:f0:
        96:5a:38:7c:6d:4a:2d:1d:5c:56:d5:92:e4:4e:3a:bf:48:1d:
        58:f8:df:8e:83:4e:39:0e:a1:7a:56:83:1c:00:d1:7e:cf:3c:
        ba:35:1e:98:ec:6d:8d:ae:49:6e:8b:e1:72:da:5c:b1:c3:09:
        37:15:65:9a:0a:c5:59:41:fc:50:45:9f:86:4b:3e:db:6a:1b:
        95:09:60:b8:04:6f:ef:72:47:d7:44:98:ca:14:e3:58:3d:70:
        4d:15:10:b9:48:ee:bd:23:99:53:0e:58:f9:e4:7e:30:16:78:
        a9:aa:07:2f:5c:32:3d:db:22:ae:8c:d3:67:5b:07:e8:8d:a9:
        f6:14:b7:13:16:2c:73:33:13:5d:ef:40:c1:72:b9:e6:92:b7:
        9b:8b:18:0d:3a:1f:dd:e3:da:91:42:ae:1d:a8:d2:f8:b1:a8:
        aa:a9:01:bf:dd:76:b9:50:3e:24:6f:ee:2e:52:64:b1:94:3e:
        9d:f7:57:76:b2:98:18:b0
-----BEGIN CERTIFICATE-----
MIIFZDCCA0wCAQEwDQYJKoZIhvcNAQELBQAwejELMAkGA1UEBhMCVVMxCzAJBgNV
BAYTAlVTMQswCQYDVQQIDAJDQTEYMBYGA1UECgwPU3ByaW5ndGFpbCBJbmMuMTcw
NQYDVQQDDC5TcHJpbmd0YWlsIFRlc3QgSW50ZXJtZWRpYXRlIENBLCBzcHJpbmd0
YWlsLmlvMB4XDTI1MDExNTIzNDMzNloXDTI2MDExNTIzNDMzNlowdjELMAkGA1UE
BhMCVVMxCzAJBgNVBAYTAlVTMQswCQYDVQQIDAJDQTEYMBYGA1UECgwPU3ByaW5n
dGFpbCBJbmMuMTMwMQYDVQQDDCpTcHJpbmd0YWlsIFRlc3QgTGVhZiBTZXJ2ZXIs
IHNwcmluZ3RhaWwuaW8wggIiMA0GCSqGSIb3DQEBAQUAA4ICDwAwggIKAoICAQDG
sgjhQ7jOIzsOaeza8vNHin6I++bVYICXMA51L+Q43EA19nmw0RwByR6U/psEDh6L
ldxW28TOCjy/iYGuyjHWCjNYSynUQvfeTZgXU6TGumxaMwkosnBQZgH05OvW13iR
PCbJzPP42sH9j6QAQLaSQFHj1u5JZRn8UBDxz6kudv6HBY8vBtqQnMp+1eRf2qsq
wFua61B0SkjCZrj5XzwqgLBPN8F/WmP2Nw4pXy8ZDkxIhjqLTcHKb59f5bOHtpwJ
xATAjFdPxE2G6UolAH6vltaPXnd6xheZCP9mJyo5xY6YST+B+tpDCoBatfVx3Ase
vDFVCz34cHnbIIQG+xLEn6QtbYglORhSXorsAXevlxBBMcLqC9dY0N8bR+8Qbk1x
vBPYlRLO2wD4nH8mX5tKKGPjFZBnpumUssx0+7Abd2XA5SL4PsHMTIJpiOic6Vkq
1TiNgScsO4hImdfkSOKGLnSfte5hiGtW0dvj9Cvacp29G3uRhHu9NrCKyplVtjKT
7xfxr6hlH5BmSivEDZqqmNusILqBcZQqrAtZL213Bq9L01bHPI/MGW9WOutyIqFI
3abeCctS6d2GIvSraDzOR0hilOakwwjHHJ+sXcOULt/jW1YoEY9zll0lqfCrLTMX
fzWaM6qZ6xkDZjzW+OJmDtt2OurTfd0aAntP1HK5twIDAQABMA0GCSqGSIb3DQEB
CwUAA4ICAQC3P7hLHdoB+cF2q+7+C2LNC5F1jYd0/EHmWwWaFHPJEEdzKL1QLiUg
vcqkKa+9k+s3SXT1cXXkGoY0B/aW0GkS/nc49HfJwdd4R5ggRsw2P532TDPFae41
A5Pyr3xr1sZozMzfjX+Usz2tAlfGrST6ohWl6rXP3/beYj4QaRmCpAQVuOdFAewH
4csjIw2Au7/8JLsRYRNVb7CzUfotX/YosKrW+S2SSy924Kui57KT5RnSfZnxjcpN
lNCkgnPjHNYaixEQ38zIhNC92fgCpVa6Ly+VOc6UsQTWVUDU1zpTwJ7oyXKUFpBC
/yzM8JvOePjgN9a5g74Nk5bQ18Pkj0lV5Sz8Lh9MHukQSxzTitDqL0ZJRd2lTwAe
uIuWIN+MWqwdDSB1uDTOVR1evn3aB7n92BlWMnCkSCo5i6E5PKnP2MYCMPCWWjh8
bUotHVxW1ZLkTjq/SB1Y+N+Og045DqF6VoMcANF+zzy6NR6Y7G2Nrklui+Fy2lyx
wwk3FWWaCsVZQfxQRZ+GSz7bahuVCWC4BG/vckfXRJjKFONYPXBNFRC5SO69I5lT
Dlj55H4wFnipqgcvXDI92yKujNNnWwfojan2FLcTFixzMxNd70DBcrnmkrebixgN
Oh/d49qRQq4dqNL4saiqqQG/3Xa5UD4kb+4uUmSxlD6d91d2spgYsA==
-----END CERTIFICATE-----
Certificate:
    Data:
        Version: 3 (0x2)
        Serial Number: 1 (0x1)
        Signature Algorithm: sha256WithRSAEncryption
        Issuer: C=US, C=US, ST=CA, O=Springtail Inc., CN=Springtail Test Root CA, springtail.io
        Validity
            Not Before: Jan 15 23:43:34 2025 GMT
            Not After : Jan 15 23:43:34 2027 GMT
        Subject: C=US, C=US, ST=CA, O=Springtail Inc., CN=Springtail Test Intermediate CA, springtail.io
        Subject Public Key Info:
            Public Key Algorithm: rsaEncryption
                Public-Key: (4096 bit)
                Modulus:
                    00:cd:db:af:12:5e:fd:ff:49:64:5c:20:f0:99:e6:
                    f9:5d:58:8f:db:56:d6:ec:7f:ec:51:53:d3:66:0f:
                    b4:93:1e:e4:a5:a2:a7:72:f0:4f:b2:61:b4:5a:16:
                    2d:9b:88:d1:ed:e0:31:2c:25:d9:f4:0c:9c:b3:7e:
                    60:a9:f6:8a:77:a5:82:22:8b:29:e8:82:64:c7:e1:
                    db:1b:3d:61:96:3b:60:4a:07:aa:9f:5c:da:46:a0:
                    a0:5e:5f:3a:2b:a0:95:24:a8:a5:93:ed:18:94:a7:
                    56:4f:54:bb:e8:84:70:02:b2:82:08:bb:74:04:56:
                    e9:19:fe:77:19:72:9a:40:6d:ff:cf:88:50:65:9a:
                    6e:ff:bf:14:56:3a:11:64:19:e0:38:07:71:b1:16:
                    e8:71:a1:0c:e0:80:9a:fd:73:41:e6:0e:33:58:14:
                    89:32:cb:cf:c1:5b:86:fb:83:d7:3f:84:93:13:4e:
                    0e:28:90:a9:94:69:72:5c:77:7f:ae:b3:9a:88:da:
                    19:53:b7:7d:dd:16:d4:2b:a8:ce:e4:55:d6:e2:d1:
                    cf:75:bc:64:49:b5:cd:a1:43:20:b2:81:db:74:09:
                    c8:ec:a2:30:2d:94:96:64:d1:e0:f3:3c:9b:f2:81:
                    c3:cd:0d:30:5d:74:5a:fe:3a:ef:3b:e5:70:fa:62:
                    9e:e9:63:9d:e2:da:25:3d:c5:7e:2b:36:14:ea:1d:
                    e6:28:de:af:6e:e4:86:a1:cf:31:50:8b:77:f8:1d:
                    a2:06:cc:76:cc:6a:68:de:c2:f9:5c:e8:b2:96:a9:
                    73:53:8c:9a:5b:7f:f1:d7:0c:3f:0a:d9:07:17:48:
                    df:bb:6f:03:32:c2:fc:b3:66:b9:2b:7f:bd:9a:60:
                    d6:f1:e1:53:de:b8:29:7e:a6:7b:83:25:a1:d8:71:
                    29:18:3d:15:e5:5b:96:a2:f8:f1:b2:52:a6:97:f8:
                    82:4c:0c:94:41:4f:6d:1a:0b:30:f8:b9:d9:0c:1f:
                    08:d7:6d:0f:c8:f9:fc:6a:1e:06:38:a2:ed:3e:48:
                    e9:0d:a8:58:43:9d:d9:a0:52:60:e3:c6:84:40:96:
                    e6:06:47:d6:89:68:dd:26:70:ea:5d:f8:e5:ed:5b:
                    05:4a:d5:b9:f9:18:40:b0:c0:81:4f:35:cd:59:7c:
                    0d:e5:30:ae:1f:67:b2:1f:3e:e8:3f:81:15:66:89:
                    ed:c2:8e:fc:ea:a6:8a:bc:13:d8:59:cb:e9:09:3f:
                    0e:3c:31:12:4b:e8:68:6d:05:48:84:c0:39:e0:df:
                    b9:88:f3:3a:2d:de:01:69:d3:c8:07:1d:f1:a7:af:
                    12:3e:d2:05:76:ab:1a:f8:81:1c:66:9e:0e:35:86:
                    70:12:3b
                Exponent: 65537 (0x10001)
        X509v3 extensions:
            X509v3 Basic Constraints: critical
                CA:TRUE
            X509v3 Key Usage: critical
                Certificate Sign
            X509v3 Subject Key Identifier: 
                F9:6D:AD:18:C9:E2:2C:06:0A:40:DC:33:63:46:B3:DA:66:67:F7:5F
            X509v3 Authority Key Identifier: 
                03:16:29:E2:A0:C0:AB:8D:45:ED:68:E7:1F:D5:1E:90:BE:FE:17:85
    Signature Algorithm: sha256WithRSAEncryption
    Signature Value:
        65:da:fe:c8:c6:6d:b9:6f:0a:98:13:49:4d:f4:17:cb:7f:5c:
        51:7d:44:34:72:49:08:f1:c5:44:bc:c8:db:fb:5b:1e:a7:1b:
        10:39:eb:3a:2b:9f:49:9c:bf:fd:49:be:9d:4f:80:10:b0:75:
        d1:80:0e:7a:0d:11:71:ac:5a:93:b4:fe:d5:05:30:bc:65:e5:
        13:67:b6:f1:07:cc:de:36:56:22:6e:5a:59:06:ac:1f:7d:30:
        1c:4c:13:6b:84:e0:4c:21:75:ff:09:58:20:a0:0d:62:5f:a3:
        a5:c6:14:5a:6f:10:ba:8f:64:f3:25:81:3d:50:98:00:57:27:
        23:24:2d:6f:3e:24:a3:27:98:c9:8b:0e:e8:51:d8:f1:6b:d8:
        67:a2:84:62:a4:3f:14:cd:94:ee:26:3d:c6:19:77:31:a4:5a:
        f6:f8:a8:05:57:d7:34:e6:32:4b:88:dc:84:bf:09:33:2a:61:
        6a:a2:e4:b0:36:2e:ee:53:c7:0a:dc:97:02:d1:e9:89:a1:75:
        ec:32:b4:93:4a:51:c1:c7:82:d8:71:d6:5d:5c:c8:3e:2f:89:
        35:9c:a7:b6:03:e8:cc:72:db:3e:d5:49:22:f0:11:65:de:a8:
        29:44:8b:5b:10:d9:c9:1f:49:81:13:f1:37:bc:81:e7:f4:91:
        90:18:79:42:dc:95:83:61:e9:0e:3c:10:aa:8b:83:fe:50:3f:
        af:cc:ac:78:6b:0f:48:12:f7:b7:bc:f9:42:4a:15:12:ee:10:
        5b:28:39:3a:7c:3a:8c:79:c3:7d:40:4e:f3:fb:13:70:e1:f1:
        23:81:f1:bb:5a:2e:e8:59:ec:b0:df:08:67:b0:d4:8f:90:2c:
        e2:3f:56:bd:04:31:38:19:3c:de:e9:61:10:bf:78:e5:a6:e0:
        2b:67:56:51:b7:ae:e3:20:c5:23:0c:5f:63:57:cf:c5:4b:28:
        7c:00:94:b9:bd:45:64:7d:0b:c3:0d:7f:52:c6:48:d4:46:9e:
        b4:7e:ce:bd:9d:e1:74:ed:02:11:a0:72:31:ff:50:2d:99:a2:
        53:b9:bf:30:54:0f:79:55:e4:a9:59:c5:6e:3e:2c:62:db:6d:
        e3:62:f0:9f:6b:8c:02:5f:d1:e8:98:12:53:c7:f6:b3:de:93:
        e2:e2:1a:1c:e0:8e:bd:d7:98:56:38:17:9b:e9:42:78:02:e6:
        a9:da:c8:06:a0:15:d3:00:24:29:e4:c0:7c:10:3a:9a:43:a8:
        18:96:18:7d:f0:b0:d9:a1:82:2f:bc:23:e3:6c:ae:45:2c:56:
        ea:57:a1:77:17:50:7a:40:39:73:62:d3:88:c0:1c:cc:24:a6:
        3c:d4:ba:0a:23:92:61:64
-----BEGIN CERTIFICATE-----
MIIFyjCCA7KgAwIBAgIBATANBgkqhkiG9w0BAQsFADByMQswCQYDVQQGEwJVUzEL
MAkGA1UEBhMCVVMxCzAJBgNVBAgMAkNBMRgwFgYDVQQKDA9TcHJpbmd0YWlsIElu
Yy4xLzAtBgNVBAMMJlNwcmluZ3RhaWwgVGVzdCBSb290IENBLCBzcHJpbmd0YWls
LmlvMB4XDTI1MDExNTIzNDMzNFoXDTI3MDExNTIzNDMzNFowejELMAkGA1UEBhMC
VVMxCzAJBgNVBAYTAlVTMQswCQYDVQQIDAJDQTEYMBYGA1UECgwPU3ByaW5ndGFp
bCBJbmMuMTcwNQYDVQQDDC5TcHJpbmd0YWlsIFRlc3QgSW50ZXJtZWRpYXRlIENB
LCBzcHJpbmd0YWlsLmlvMIICIjANBgkqhkiG9w0BAQEFAAOCAg8AMIICCgKCAgEA
zduvEl79/0lkXCDwmeb5XViP21bW7H/sUVPTZg+0kx7kpaKncvBPsmG0WhYtm4jR
7eAxLCXZ9Aycs35gqfaKd6WCIosp6IJkx+HbGz1hljtgSgeqn1zaRqCgXl86K6CV
JKilk+0YlKdWT1S76IRwArKCCLt0BFbpGf53GXKaQG3/z4hQZZpu/78UVjoRZBng
OAdxsRbocaEM4ICa/XNB5g4zWBSJMsvPwVuG+4PXP4STE04OKJCplGlyXHd/rrOa
iNoZU7d93RbUK6jO5FXW4tHPdbxkSbXNoUMgsoHbdAnI7KIwLZSWZNHg8zyb8oHD
zQ0wXXRa/jrvO+Vw+mKe6WOd4tolPcV+KzYU6h3mKN6vbuSGoc8xUIt3+B2iBsx2
zGpo3sL5XOiylqlzU4yaW3/x1ww/CtkHF0jfu28DMsL8s2a5K3+9mmDW8eFT3rgp
fqZ7gyWh2HEpGD0V5VuWovjxslKml/iCTAyUQU9tGgsw+LnZDB8I120PyPn8ah4G
OKLtPkjpDahYQ53ZoFJg48aEQJbmBkfWiWjdJnDqXfjl7VsFStW5+RhAsMCBTzXN
WXwN5TCuH2eyHz7oP4EVZontwo786qaKvBPYWcvpCT8OPDESS+hobQVIhMA54N+5
iPM6Ld4BadPIBx3xp68SPtIFdqsa+IEcZp4ONYZwEjsCAwEAAaNjMGEwDwYDVR0T
AQH/BAUwAwEB/zAOBgNVHQ8BAf8EBAMCAgQwHQYDVR0OBBYEFPltrRjJ4iwGCkDc
M2NGs9pmZ/dfMB8GA1UdIwQYMBaAFAMWKeKgwKuNRe1o5x/VHpC+/heFMA0GCSqG
SIb3DQEBCwUAA4ICAQBl2v7Ixm25bwqYE0lN9BfLf1xRfUQ0ckkI8cVEvMjb+1se
pxsQOes6K59JnL/9Sb6dT4AQsHXRgA56DRFxrFqTtP7VBTC8ZeUTZ7bxB8zeNlYi
blpZBqwffTAcTBNrhOBMIXX/CVggoA1iX6OlxhRabxC6j2TzJYE9UJgAVycjJC1v
PiSjJ5jJiw7oUdjxa9hnooRipD8UzZTuJj3GGXcxpFr2+KgFV9c05jJLiNyEvwkz
KmFqouSwNi7uU8cK3JcC0emJoXXsMrSTSlHBx4LYcdZdXMg+L4k1nKe2A+jMcts+
1Uki8BFl3qgpRItbENnJH0mBE/E3vIHn9JGQGHlC3JWDYekOPBCqi4P+UD+vzKx4
aw9IEve3vPlCShUS7hBbKDk6fDqMecN9QE7z+xNw4fEjgfG7Wi7oWeyw3whnsNSP
kCziP1a9BDE4GTze6WEQv3jlpuArZ1ZRt67jIMUjDF9jV8/FSyh8AJS5vUVkfQvD
DX9SxkjURp60fs69neF07QIRoHIx/1AtmaJTub8wVA95VeSpWcVuPixi223jYvCf
a4wCX9HomBJTx/az3pPi4hoc4I6915hWOBeb6UJ4Auap2sgGoBXTACQp5MB8EDqa
Q6gYlhh98LDZoYIvvCPjbK5FLFbqV6F3F1B6QDlzYtOIwBzMJKY81LoKI5JhZA==
-----END CERTIFICATE-----
