Certificate:
    Data:
        Version: 1 (0x0)
        Serial Number: 0 (0x0)
        Signature Algorithm: sha256WithRSAEncryption
        Issuer: C=US, C=US, ST=CA, O=Springtail Inc., CN=Springtail Test Intermediate CA, springtail.io
        Validity
            Not Before: Jan 15 23:43:35 2025 GMT
            Not After : Jan 15 23:43:35 2026 GMT
        Subject: C=US, C=US, ST=CA, O=Springtail Inc., CN=Springtail Test Leaf Client, springtail.io
        Subject Public Key Info:
            Public Key Algorithm: rsaEncryption
                Public-Key: (4096 bit)
                Modulus:
                    00:ac:df:01:96:0c:b3:96:b2:87:fd:6e:97:e4:fe:
                    c0:a7:63:21:c5:1c:a1:58:a1:98:ab:f1:77:cb:54:
                    ad:c4:d6:ab:36:d4:81:c7:d9:be:88:03:8c:f9:54:
                    a1:0c:d6:4b:ee:82:ac:d5:33:74:db:bc:42:a0:0b:
                    7d:97:d7:10:a0:16:3a:a8:37:e0:39:c5:15:5e:67:
                    40:75:f5:7f:a5:69:03:a3:98:89:26:82:89:b7:f0:
                    21:2d:57:33:ff:b9:8c:02:4a:71:32:a2:48:57:e9:
                    2c:21:7a:4a:ab:97:f6:f8:00:17:37:50:2b:f8:50:
                    a5:e0:65:28:11:f4:2c:68:2d:c6:4f:a4:04:95:bb:
                    63:2d:90:db:b6:84:ff:6f:17:38:1b:75:f8:56:d0:
                    ee:05:08:17:e6:70:f9:37:f8:2d:95:62:c5:59:d3:
                    d5:7b:09:a6:55:11:f4:08:cf:2a:19:b0:4a:1a:74:
                    79:b3:0b:8f:7b:20:99:6e:ea:1c:f3:0a:a3:5f:f5:
                    37:bb:50:b5:3b:bb:53:21:9e:3d:12:d8:c0:cc:a3:
                    d7:58:68:01:92:50:d4:d8:d1:d7:c0:c2:e5:d7:a3:
                    d9:e0:16:da:a2:8b:63:f8:31:bb:47:6c:e0:cd:6a:
                    1c:7c:9f:42:a1:e4:53:cc:24:67:49:f4:2c:cc:e9:
                    d7:70:7f:1f:a7:9f:8e:ad:db:ad:c2:79:84:38:3d:
                    98:f4:41:4a:e4:61:96:d8:29:f3:e3:48:33:e0:ee:
                    5b:7a:a6:e8:29:ba:12:50:7e:f8:47:76:62:8e:96:
                    16:78:e1:6f:77:2f:f7:7f:6b:9a:06:7a:29:3d:0c:
                    8c:cc:a9:ba:29:c5:91:bd:d0:f2:4a:ed:82:5b:7d:
                    5a:a7:37:ff:1b:7e:37:db:6b:7f:0f:e0:49:cc:3a:
                    eb:2f:78:72:a9:84:d0:69:e7:17:a2:40:77:b6:9c:
                    d6:38:ca:54:82:f8:34:d4:c0:25:9d:f7:6c:0d:a5:
                    8d:d8:ec:b6:07:e4:f3:94:f6:c7:0d:9c:fa:9d:b5:
                    1a:24:0b:0c:01:7b:aa:d9:79:dc:36:b4:f4:43:99:
                    de:52:a6:89:d7:e0:fc:da:42:1a:e1:0e:86:92:97:
                    92:39:9c:44:f9:4a:af:11:02:aa:50:d5:35:5d:de:
                    2d:9e:24:a3:ca:5f:5a:e2:f7:54:60:00:5c:44:61:
                    d6:91:53:8e:39:eb:65:54:7d:e7:e6:9b:a5:6f:91:
                    8c:ad:40:3b:b4:25:8d:a0:54:70:46:36:f7:a7:4e:
                    86:e5:ba:b5:c7:05:dd:e0:cf:71:f6:48:b5:d1:ee:
                    e7:d4:94:01:0f:3e:e9:3c:31:e1:83:a5:74:a2:e5:
                    09:6b:97
                Exponent: 65537 (0x10001)
    Signature Algorithm: sha256WithRSAEncryption
    Signature Value:
        3b:4e:8f:07:27:bf:4d:da:e6:d6:71:86:d9:66:41:f4:ea:37:
        ac:58:ff:61:77:0c:3b:31:77:bc:36:b1:ca:0a:87:2d:2b:9a:
        a6:f2:a2:ce:72:5f:f3:47:b3:0b:0d:27:fa:8b:11:a3:1f:04:
        3f:f9:0a:d0:32:64:0f:e7:c1:10:00:ba:5a:ab:b5:16:71:4e:
        61:82:fe:03:85:4a:76:d5:3b:70:4e:64:38:98:16:c8:4f:51:
        77:92:a2:ef:82:b3:50:ed:1b:ba:80:a2:06:13:7f:31:bf:0c:
        69:db:c9:38:bd:ee:c7:3a:f8:6a:8d:05:14:19:d3:91:d1:d1:
        d0:17:0c:5e:80:d8:82:ed:81:53:0e:04:75:d6:10:10:85:4b:
        cf:70:e4:f9:b4:5b:e1:63:64:dd:3f:99:5d:c5:f3:4b:f6:be:
        66:60:e1:b8:41:98:ef:b8:ba:c5:26:26:bf:70:eb:d9:d5:e1:
        a1:ac:cb:71:67:18:e8:2a:cb:91:8f:5e:5d:ef:60:92:39:b9:
        da:7e:3e:bc:e3:75:1a:f1:37:ea:f5:41:30:d9:d1:3c:6b:4a:
        95:6b:5f:77:7b:39:59:fe:99:e1:bf:8a:db:49:f4:af:d5:50:
        3c:02:7c:24:e8:e4:de:bd:54:c9:3e:fe:89:2f:0a:af:ac:41:
        0c:ef:f9:67:17:5f:d7:df:da:27:20:f1:7e:0b:f7:08:2b:93:
        15:de:a2:2b:07:40:6f:56:56:fb:0f:85:cd:ec:ac:45:73:78:
        bd:73:88:aa:6d:97:ff:76:13:9c:2c:7e:e3:e8:c3:a4:bb:f8:
        cc:47:b4:48:17:99:7a:20:b9:65:4e:1e:63:a8:8c:17:31:74:
        86:ac:2d:55:4b:d4:aa:71:2c:06:56:8e:13:9a:cd:56:fc:8e:
        02:81:4f:9d:e2:1f:da:7d:7c:49:b6:9b:d8:48:bc:51:6c:c4:
        2e:c7:bc:2e:8f:c7:cd:7e:e7:e3:08:b8:78:65:03:61:8d:12:
        da:e6:1a:4b:1a:e1:fb:1e:58:80:2d:5c:39:10:b5:e4:e1:bd:
        20:4a:8e:4a:2a:a6:b6:4d:02:60:84:6d:3e:ee:39:95:91:e0:
        45:1b:80:e6:6a:a1:ed:b3:ea:bf:1a:32:0a:97:a1:32:e0:d4:
        6f:02:5e:87:09:8f:d6:15:00:16:2e:f7:e4:03:fd:0a:fc:ca:
        98:86:2b:c4:f2:70:e9:41:98:1a:a3:53:f2:14:0c:4f:54:6c:
        74:60:28:f3:fa:2d:a2:2e:23:e5:2c:6f:97:ef:67:fb:d8:8e:
        0b:ec:d8:0b:91:9f:47:7f:b8:f6:68:76:80:ad:5a:a1:e9:91:
        14:bd:a2:a0:65:e3:bf:1a
-----BEGIN CERTIFICATE-----
MIIFZDCCA0wCAQAwDQYJKoZIhvcNAQELBQAwejELMAkGA1UEBhMCVVMxCzAJBgNV
BAYTAlVTMQswCQYDVQQIDAJDQTEYMBYGA1UECgwPU3ByaW5ndGFpbCBJbmMuMTcw
NQYDVQQDDC5TcHJpbmd0YWlsIFRlc3QgSW50ZXJtZWRpYXRlIENBLCBzcHJpbmd0
YWlsLmlvMB4XDTI1MDExNTIzNDMzNVoXDTI2MDExNTIzNDMzNVowdjELMAkGA1UE
BhMCVVMxCzAJBgNVBAYTAlVTMQswCQYDVQQIDAJDQTEYMBYGA1UECgwPU3ByaW5n
dGFpbCBJbmMuMTMwMQYDVQQDDCpTcHJpbmd0YWlsIFRlc3QgTGVhZiBDbGllbnQs
IHNwcmluZ3RhaWwuaW8wggIiMA0GCSqGSIb3DQEBAQUAA4ICDwAwggIKAoICAQCs
3wGWDLOWsof9bpfk/sCnYyHFHKFYoZir8XfLVK3E1qs21IHH2b6IA4z5VKEM1kvu
gqzVM3TbvEKgC32X1xCgFjqoN+A5xRVeZ0B19X+laQOjmIkmgom38CEtVzP/uYwC
SnEyokhX6Swhekqrl/b4ABc3UCv4UKXgZSgR9CxoLcZPpASVu2MtkNu2hP9vFzgb
dfhW0O4FCBfmcPk3+C2VYsVZ09V7CaZVEfQIzyoZsEoadHmzC497IJlu6hzzCqNf
9Te7ULU7u1Mhnj0S2MDMo9dYaAGSUNTY0dfAwuXXo9ngFtqii2P4MbtHbODNahx8
n0Kh5FPMJGdJ9CzM6ddwfx+nn46t263CeYQ4PZj0QUrkYZbYKfPjSDPg7lt6pugp
uhJQfvhHdmKOlhZ44W93L/d/a5oGeik9DIzMqbopxZG90PJK7YJbfVqnN/8bfjfb
a38P4EnMOusveHKphNBp5xeiQHe2nNY4ylSC+DTUwCWd92wNpY3Y7LYH5POU9scN
nPqdtRokCwwBe6rZedw2tPRDmd5SponX4PzaQhrhDoaSl5I5nET5Sq8RAqpQ1TVd
3i2eJKPKX1ri91RgAFxEYdaRU44562VUfefmm6VvkYytQDu0JY2gVHBGNvenTobl
urXHBd3gz3H2SLXR7ufUlAEPPuk8MeGDpXSi5QlrlwIDAQABMA0GCSqGSIb3DQEB
CwUAA4ICAQA7To8HJ79N2ubWcYbZZkH06jesWP9hdww7MXe8NrHKCoctK5qm8qLO
cl/zR7MLDSf6ixGjHwQ/+QrQMmQP58EQALpaq7UWcU5hgv4DhUp21TtwTmQ4mBbI
T1F3kqLvgrNQ7Ru6gKIGE38xvwxp28k4ve7HOvhqjQUUGdOR0dHQFwxegNiC7YFT
DgR11hAQhUvPcOT5tFvhY2TdP5ldxfNL9r5mYOG4QZjvuLrFJia/cOvZ1eGhrMtx
ZxjoKsuRj15d72CSObnafj6843Ua8Tfq9UEw2dE8a0qVa193ezlZ/pnhv4rbSfSv
1VA8Anwk6OTevVTJPv6JLwqvrEEM7/lnF1/X39onIPF+C/cIK5MV3qIrB0BvVlb7
D4XN7KxFc3i9c4iqbZf/dhOcLH7j6MOku/jMR7RIF5l6ILllTh5jqIwXMXSGrC1V
S9SqcSwGVo4Tms1W/I4CgU+d4h/afXxJtpvYSLxRbMQux7wuj8fNfufjCLh4ZQNh
jRLa5hpLGuH7HliALVw5ELXk4b0gSo5KKqa2TQJghG0+7jmVkeBFG4DmaqHts+q/
GjIKl6Ey4NRvAl6HCY/WFQAWLvfkA/0K/MqYhivE8nDpQZgao1PyFAxPVGx0YCjz
+i2iLiPlLG+X72f72I4L7NgLkZ9Hf7j2aHaArVqh6ZEUvaKgZeO/Gg==
-----END CERTIFICATE-----
Certificate:
    Data:
        Version: 3 (0x2)
        Serial Number: 1 (0x1)
        Signature Algorithm: sha256WithRSAEncryption
        Issuer: C=US, C=US, ST=CA, O=Springtail Inc., CN=Springtail Test Root CA, springtail.io
        Validity
            Not Before: Jan 15 23:43:34 2025 GMT
            Not After : Jan 15 23:43:34 2027 GMT
        Subject: C=US, C=US, ST=CA, O=Springtail Inc., CN=Springtail Test Intermediate CA, springtail.io
        Subject Public Key Info:
            Public Key Algorithm: rsaEncryption
                Public-Key: (4096 bit)
                Modulus:
                    00:cd:db:af:12:5e:fd:ff:49:64:5c:20:f0:99:e6:
                    f9:5d:58:8f:db:56:d6:ec:7f:ec:51:53:d3:66:0f:
                    b4:93:1e:e4:a5:a2:a7:72:f0:4f:b2:61:b4:5a:16:
                    2d:9b:88:d1:ed:e0:31:2c:25:d9:f4:0c:9c:b3:7e:
                    60:a9:f6:8a:77:a5:82:22:8b:29:e8:82:64:c7:e1:
                    db:1b:3d:61:96:3b:60:4a:07:aa:9f:5c:da:46:a0:
                    a0:5e:5f:3a:2b:a0:95:24:a8:a5:93:ed:18:94:a7:
                    56:4f:54:bb:e8:84:70:02:b2:82:08:bb:74:04:56:
                    e9:19:fe:77:19:72:9a:40:6d:ff:cf:88:50:65:9a:
                    6e:ff:bf:14:56:3a:11:64:19:e0:38:07:71:b1:16:
                    e8:71:a1:0c:e0:80:9a:fd:73:41:e6:0e:33:58:14:
                    89:32:cb:cf:c1:5b:86:fb:83:d7:3f:84:93:13:4e:
                    0e:28:90:a9:94:69:72:5c:77:7f:ae:b3:9a:88:da:
                    19:53:b7:7d:dd:16:d4:2b:a8:ce:e4:55:d6:e2:d1:
                    cf:75:bc:64:49:b5:cd:a1:43:20:b2:81:db:74:09:
                    c8:ec:a2:30:2d:94:96:64:d1:e0:f3:3c:9b:f2:81:
                    c3:cd:0d:30:5d:74:5a:fe:3a:ef:3b:e5:70:fa:62:
                    9e:e9:63:9d:e2:da:25:3d:c5:7e:2b:36:14:ea:1d:
                    e6:28:de:af:6e:e4:86:a1:cf:31:50:8b:77:f8:1d:
                    a2:06:cc:76:cc:6a:68:de:c2:f9:5c:e8:b2:96:a9:
                    73:53:8c:9a:5b:7f:f1:d7:0c:3f:0a:d9:07:17:48:
                    df:bb:6f:03:32:c2:fc:b3:66:b9:2b:7f:bd:9a:60:
                    d6:f1:e1:53:de:b8:29:7e:a6:7b:83:25:a1:d8:71:
                    29:18:3d:15:e5:5b:96:a2:f8:f1:b2:52:a6:97:f8:
                    82:4c:0c:94:41:4f:6d:1a:0b:30:f8:b9:d9:0c:1f:
                    08:d7:6d:0f:c8:f9:fc:6a:1e:06:38:a2:ed:3e:48:
                    e9:0d:a8:58:43:9d:d9:a0:52:60:e3:c6:84:40:96:
                    e6:06:47:d6:89:68:dd:26:70:ea:5d:f8:e5:ed:5b:
                    05:4a:d5:b9:f9:18:40:b0:c0:81:4f:35:cd:59:7c:
                    0d:e5:30:ae:1f:67:b2:1f:3e:e8:3f:81:15:66:89:
                    ed:c2:8e:fc:ea:a6:8a:bc:13:d8:59:cb:e9:09:3f:
                    0e:3c:31:12:4b:e8:68:6d:05:48:84:c0:39:e0:df:
                    b9:88:f3:3a:2d:de:01:69:d3:c8:07:1d:f1:a7:af:
                    12:3e:d2:05:76:ab:1a:f8:81:1c:66:9e:0e:35:86:
                    70:12:3b
                Exponent: 65537 (0x10001)
        X509v3 extensions:
            X509v3 Basic Constraints: critical
                CA:TRUE
            X509v3 Key Usage: critical
                Certificate Sign
            X509v3 Subject Key Identifier: 
                F9:6D:AD:18:C9:E2:2C:06:0A:40:DC:33:63:46:B3:DA:66:67:F7:5F
            X509v3 Authority Key Identifier: 
                03:16:29:E2:A0:C0:AB:8D:45:ED:68:E7:1F:D5:1E:90:BE:FE:17:85
    Signature Algorithm: sha256WithRSAEncryption
    Signature Value:
        65:da:fe:c8:c6:6d:b9:6f:0a:98:13:49:4d:f4:17:cb:7f:5c:
        51:7d:44:34:72:49:08:f1:c5:44:bc:c8:db:fb:5b:1e:a7:1b:
        10:39:eb:3a:2b:9f:49:9c:bf:fd:49:be:9d:4f:80:10:b0:75:
        d1:80:0e:7a:0d:11:71:ac:5a:93:b4:fe:d5:05:30:bc:65:e5:
        13:67:b6:f1:07:cc:de:36:56:22:6e:5a:59:06:ac:1f:7d:30:
        1c:4c:13:6b:84:e0:4c:21:75:ff:09:58:20:a0:0d:62:5f:a3:
        a5:c6:14:5a:6f:10:ba:8f:64:f3:25:81:3d:50:98:00:57:27:
        23:24:2d:6f:3e:24:a3:27:98:c9:8b:0e:e8:51:d8:f1:6b:d8:
        67:a2:84:62:a4:3f:14:cd:94:ee:26:3d:c6:19:77:31:a4:5a:
        f6:f8:a8:05:57:d7:34:e6:32:4b:88:dc:84:bf:09:33:2a:61:
        6a:a2:e4:b0:36:2e:ee:53:c7:0a:dc:97:02:d1:e9:89:a1:75:
        ec:32:b4:93:4a:51:c1:c7:82:d8:71:d6:5d:5c:c8:3e:2f:89:
        35:9c:a7:b6:03:e8:cc:72:db:3e:d5:49:22:f0:11:65:de:a8:
        29:44:8b:5b:10:d9:c9:1f:49:81:13:f1:37:bc:81:e7:f4:91:
        90:18:79:42:dc:95:83:61:e9:0e:3c:10:aa:8b:83:fe:50:3f:
        af:cc:ac:78:6b:0f:48:12:f7:b7:bc:f9:42:4a:15:12:ee:10:
        5b:28:39:3a:7c:3a:8c:79:c3:7d:40:4e:f3:fb:13:70:e1:f1:
        23:81:f1:bb:5a:2e:e8:59:ec:b0:df:08:67:b0:d4:8f:90:2c:
        e2:3f:56:bd:04:31:38:19:3c:de:e9:61:10:bf:78:e5:a6:e0:
        2b:67:56:51:b7:ae:e3:20:c5:23:0c:5f:63:57:cf:c5:4b:28:
        7c:00:94:b9:bd:45:64:7d:0b:c3:0d:7f:52:c6:48:d4:46:9e:
        b4:7e:ce:bd:9d:e1:74:ed:02:11:a0:72:31:ff:50:2d:99:a2:
        53:b9:bf:30:54:0f:79:55:e4:a9:59:c5:6e:3e:2c:62:db:6d:
        e3:62:f0:9f:6b:8c:02:5f:d1:e8:98:12:53:c7:f6:b3:de:93:
        e2:e2:1a:1c:e0:8e:bd:d7:98:56:38:17:9b:e9:42:78:02:e6:
        a9:da:c8:06:a0:15:d3:00:24:29:e4:c0:7c:10:3a:9a:43:a8:
        18:96:18:7d:f0:b0:d9:a1:82:2f:bc:23:e3:6c:ae:45:2c:56:
        ea:57:a1:77:17:50:7a:40:39:73:62:d3:88:c0:1c:cc:24:a6:
        3c:d4:ba:0a:23:92:61:64
-----BEGIN CERTIFICATE-----
MIIFyjCCA7KgAwIBAgIBATANBgkqhkiG9w0BAQsFADByMQswCQYDVQQGEwJVUzEL
MAkGA1UEBhMCVVMxCzAJBgNVBAgMAkNBMRgwFgYDVQQKDA9TcHJpbmd0YWlsIElu
Yy4xLzAtBgNVBAMMJlNwcmluZ3RhaWwgVGVzdCBSb290IENBLCBzcHJpbmd0YWls
LmlvMB4XDTI1MDExNTIzNDMzNFoXDTI3MDExNTIzNDMzNFowejELMAkGA1UEBhMC
VVMxCzAJBgNVBAYTAlVTMQswCQYDVQQIDAJDQTEYMBYGA1UECgwPU3ByaW5ndGFp
bCBJbmMuMTcwNQYDVQQDDC5TcHJpbmd0YWlsIFRlc3QgSW50ZXJtZWRpYXRlIENB
LCBzcHJpbmd0YWlsLmlvMIICIjANBgkqhkiG9w0BAQEFAAOCAg8AMIICCgKCAgEA
zduvEl79/0lkXCDwmeb5XViP21bW7H/sUVPTZg+0kx7kpaKncvBPsmG0WhYtm4jR
7eAxLCXZ9Aycs35gqfaKd6WCIosp6IJkx+HbGz1hljtgSgeqn1zaRqCgXl86K6CV
JKilk+0YlKdWT1S76IRwArKCCLt0BFbpGf53GXKaQG3/z4hQZZpu/78UVjoRZBng
OAdxsRbocaEM4ICa/XNB5g4zWBSJMsvPwVuG+4PXP4STE04OKJCplGlyXHd/rrOa
iNoZU7d93RbUK6jO5FXW4tHPdbxkSbXNoUMgsoHbdAnI7KIwLZSWZNHg8zyb8oHD
zQ0wXXRa/jrvO+Vw+mKe6WOd4tolPcV+KzYU6h3mKN6vbuSGoc8xUIt3+B2iBsx2
zGpo3sL5XOiylqlzU4yaW3/x1ww/CtkHF0jfu28DMsL8s2a5K3+9mmDW8eFT3rgp
fqZ7gyWh2HEpGD0V5VuWovjxslKml/iCTAyUQU9tGgsw+LnZDB8I120PyPn8ah4G
OKLtPkjpDahYQ53ZoFJg48aEQJbmBkfWiWjdJnDqXfjl7VsFStW5+RhAsMCBTzXN
WXwN5TCuH2eyHz7oP4EVZontwo786qaKvBPYWcvpCT8OPDESS+hobQVIhMA54N+5
iPM6Ld4BadPIBx3xp68SPtIFdqsa+IEcZp4ONYZwEjsCAwEAAaNjMGEwDwYDVR0T
AQH/BAUwAwEB/zAOBgNVHQ8BAf8EBAMCAgQwHQYDVR0OBBYEFPltrRjJ4iwGCkDc
M2NGs9pmZ/dfMB8GA1UdIwQYMBaAFAMWKeKgwKuNRe1o5x/VHpC+/heFMA0GCSqG
SIb3DQEBCwUAA4ICAQBl2v7Ixm25bwqYE0lN9BfLf1xRfUQ0ckkI8cVEvMjb+1se
pxsQOes6K59JnL/9Sb6dT4AQsHXRgA56DRFxrFqTtP7VBTC8ZeUTZ7bxB8zeNlYi
blpZBqwffTAcTBNrhOBMIXX/CVggoA1iX6OlxhRabxC6j2TzJYE9UJgAVycjJC1v
PiSjJ5jJiw7oUdjxa9hnooRipD8UzZTuJj3GGXcxpFr2+KgFV9c05jJLiNyEvwkz
KmFqouSwNi7uU8cK3JcC0emJoXXsMrSTSlHBx4LYcdZdXMg+L4k1nKe2A+jMcts+
1Uki8BFl3qgpRItbENnJH0mBE/E3vIHn9JGQGHlC3JWDYekOPBCqi4P+UD+vzKx4
aw9IEve3vPlCShUS7hBbKDk6fDqMecN9QE7z+xNw4fEjgfG7Wi7oWeyw3whnsNSP
kCziP1a9BDE4GTze6WEQv3jlpuArZ1ZRt67jIMUjDF9jV8/FSyh8AJS5vUVkfQvD
DX9SxkjURp60fs69neF07QIRoHIx/1AtmaJTub8wVA95VeSpWcVuPixi223jYvCf
a4wCX9HomBJTx/az3pPi4hoc4I6915hWOBeb6UJ4Auap2sgGoBXTACQp5MB8EDqa
Q6gYlhh98LDZoYIvvCPjbK5FLFbqV6F3F1B6QDlzYtOIwBzMJKY81LoKI5JhZA==
-----END CERTIFICATE-----
