Certificate:
    Data:
        Version: 1 (0x0)
        Serial Number: 1 (0x1)
        Signature Algorithm: sha256WithRSAEncryption
        Issuer: C=US, C=US, ST=CA, O=Springtail Inc., CN=Springtail Test Intermediate CA, springtail.io
        Validity
            Not Before: Jan 15 23:43:36 2025 GMT
            Not After : Jan 15 23:43:36 2026 GMT
        Subject: C=US, C=US, ST=CA, O=Springtail Inc., CN=Springtail Test Leaf Server, springtail.io
        Subject Public Key Info:
            Public Key Algorithm: rsaEncryption
                Public-Key: (4096 bit)
                Modulus:
                    00:c6:b2:08:e1:43:b8:ce:23:3b:0e:69:ec:da:f2:
                    f3:47:8a:7e:88:fb:e6:d5:60:80:97:30:0e:75:2f:
                    e4:38:dc:40:35:f6:79:b0:d1:1c:01:c9:1e:94:fe:
                    9b:04:0e:1e:8b:95:dc:56:db:c4:ce:0a:3c:bf:89:
                    81:ae:ca:31:d6:0a:33:58:4b:29:d4:42:f7:de:4d:
                    98:17:53:a4:c6:ba:6c:5a:33:09:28:b2:70:50:66:
                    01:f4:e4:eb:d6:d7:78:91:3c:26:c9:cc:f3:f8:da:
                    c1:fd:8f:a4:00:40:b6:92:40:51:e3:d6:ee:49:65:
                    19:fc:50:10:f1:cf:a9:2e:76:fe:87:05:8f:2f:06:
                    da:90:9c:ca:7e:d5:e4:5f:da:ab:2a:c0:5b:9a:eb:
                    50:74:4a:48:c2:66:b8:f9:5f:3c:2a:80:b0:4f:37:
                    c1:7f:5a:63:f6:37:0e:29:5f:2f:19:0e:4c:48:86:
                    3a:8b:4d:c1:ca:6f:9f:5f:e5:b3:87:b6:9c:09:c4:
                    04:c0:8c:57:4f:c4:4d:86:e9:4a:25:00:7e:af:96:
                    d6:8f:5e:77:7a:c6:17:99:08:ff:66:27:2a:39:c5:
                    8e:98:49:3f:81:fa:da:43:0a:80:5a:b5:f5:71:dc:
                    0b:1e:bc:31:55:0b:3d:f8:70:79:db:20:84:06:fb:
                    12:c4:9f:a4:2d:6d:88:25:39:18:52:5e:8a:ec:01:
                    77:af:97:10:41:31:c2:ea:0b:d7:58:d0:df:1b:47:
                    ef:10:6e:4d:71:bc:13:d8:95:12:ce:db:00:f8:9c:
                    7f:26:5f:9b:4a:28:63:e3:15:90:67:a6:e9:94:b2:
                    cc:74:fb:b0:1b:77:65:c0:e5:22:f8:3e:c1:cc:4c:
                    82:69:88:e8:9c:e9:59:2a:d5:38:8d:81:27:2c:3b:
                    88:48:99:d7:e4:48:e2:86:2e:74:9f:b5:ee:61:88:
                    6b:56:d1:db:e3:f4:2b:da:72:9d:bd:1b:7b:91:84:
                    7b:bd:36:b0:8a:ca:99:55:b6:32:93:ef:17:f1:af:
                    a8:65:1f:90:66:4a:2b:c4:0d:9a:aa:98:db:ac:20:
                    ba:81:71:94:2a:ac:0b:59:2f:6d:77:06:af:4b:d3:
                    56:c7:3c:8f:cc:19:6f:56:3a:eb:72:22:a1:48:dd:
                    a6:de:09:cb:52:e9:dd:86:22:f4:ab:68:3c:ce:47:
                    48:62:94:e6:a4:c3:08:c7:1c:9f:ac:5d:c3:94:2e:
                    df:e3:5b:56:28:11:8f:73:96:5d:25:a9:f0:ab:2d:
                    33:17:7f:35:9a:33:aa:99:eb:19:03:66:3c:d6:f8:
                    e2:66:0e:db:76:3a:ea:d3:7d:dd:1a:02:7b:4f:d4:
                    72:b9:b7
                Exponent: 65537 (0x10001)
    Signature Algorithm: sha256WithRSAEncryption
    Signature Value:
        b7:3f:b8:4b:1d:da:01:f9:c1:76:ab:ee:fe:0b:62:cd:0b:91:
        75:8d:87:74:fc:41:e6:5b:05:9a:14:73:c9:10:47:73:28:bd:
        50:2e:25:20:bd:ca:a4:29:af:bd:93:eb:37:49:74:f5:71:75:
        e4:1a:86:34:07:f6:96:d0:69:12:fe:77:38:f4:77:c9:c1:d7:
        78:47:98:20:46:cc:36:3f:9d:f6:4c:33:c5:69:ee:35:03:93:
        f2:af:7c:6b:d6:c6:68:cc:cc:df:8d:7f:94:b3:3d:ad:02:57:
        c6:ad:24:fa:a2:15:a5:ea:b5:cf:df:f6:de:62:3e:10:69:19:
        82:a4:04:15:b8:e7:45:01:ec:07:e1:cb:23:23:0d:80:bb:bf:
        fc:24:bb:11:61:13:55:6f:b0:b3:51:fa:2d:5f:f6:28:b0:aa:
        d6:f9:2d:92:4b:2f:76:e0:ab:a2:e7:b2:93:e5:19:d2:7d:99:
        f1:8d:ca:4d:94:d0:a4:82:73:e3:1c:d6:1a:8b:11:10:df:cc:
        c8:84:d0:bd:d9:f8:02:a5:56:ba:2f:2f:95:39:ce:94:b1:04:
        d6:55:40:d4:d7:3a:53:c0:9e:e8:c9:72:94:16:90:42:ff:2c:
        cc:f0:9b:ce:78:f8:e0:37:d6:b9:83:be:0d:93:96:d0:d7:c3:
        e4:8f:49:55:e5:2c:fc:2e:1f:4c:1e:e9:10:4b:1c:d3:8a:d0:
        ea:2f:46:49:45:dd:a5:4f:00:1e:b8:8b:96:20:df:8c:5a:ac:
        1d:0d:20:75:b8:34:ce:55:1d:5e:be:7d:da:07:b9:fd:d8:19:
        56:32:70:a4:48:2a:39:8b:a1:39:3c:a9:cf:d8:c6:02:30:f0:
        96:5a:38:7c:6d:4a:2d:1d:5c:56:d5:92:e4:4e:3a:bf:48:1d:
        58:f8:df:8e:83:4e:39:0e:a1:7a:56:83:1c:00:d1:7e:cf:3c:
        ba:35:1e:98:ec:6d:8d:ae:49:6e:8b:e1:72:da:5c:b1:c3:09:
        37:15:65:9a:0a:c5:59:41:fc:50:45:9f:86:4b:3e:db:6a:1b:
        95:09:60:b8:04:6f:ef:72:47:d7:44:98:ca:14:e3:58:3d:70:
        4d:15:10:b9:48:ee:bd:23:99:53:0e:58:f9:e4:7e:30:16:78:
        a9:aa:07:2f:5c:32:3d:db:22:ae:8c:d3:67:5b:07:e8:8d:a9:
        f6:14:b7:13:16:2c:73:33:13:5d:ef:40:c1:72:b9:e6:92:b7:
        9b:8b:18:0d:3a:1f:dd:e3:da:91:42:ae:1d:a8:d2:f8:b1:a8:
        aa:a9:01:bf:dd:76:b9:50:3e:24:6f:ee:2e:52:64:b1:94:3e:
        9d:f7:57:76:b2:98:18:b0
-----BEGIN CERTIFICATE-----
MIIFZDCCA0wCAQEwDQYJKoZIhvcNAQELBQAwejELMAkGA1UEBhMCVVMxCzAJBgNV
BAYTAlVTMQswCQYDVQQIDAJDQTEYMBYGA1UECgwPU3ByaW5ndGFpbCBJbmMuMTcw
NQYDVQQDDC5TcHJpbmd0YWlsIFRlc3QgSW50ZXJtZWRpYXRlIENBLCBzcHJpbmd0
YWlsLmlvMB4XDTI1MDExNTIzNDMzNloXDTI2MDExNTIzNDMzNlowdjELMAkGA1UE
BhMCVVMxCzAJBgNVBAYTAlVTMQswCQYDVQQIDAJDQTEYMBYGA1UECgwPU3ByaW5n
dGFpbCBJbmMuMTMwMQYDVQQDDCpTcHJpbmd0YWlsIFRlc3QgTGVhZiBTZXJ2ZXIs
IHNwcmluZ3RhaWwuaW8wggIiMA0GCSqGSIb3DQEBAQUAA4ICDwAwggIKAoICAQDG
sgjhQ7jOIzsOaeza8vNHin6I++bVYICXMA51L+Q43EA19nmw0RwByR6U/psEDh6L
ldxW28TOCjy/iYGuyjHWCjNYSynUQvfeTZgXU6TGumxaMwkosnBQZgH05OvW13iR
PCbJzPP42sH9j6QAQLaSQFHj1u5JZRn8UBDxz6kudv6HBY8vBtqQnMp+1eRf2qsq
wFua61B0SkjCZrj5XzwqgLBPN8F/WmP2Nw4pXy8ZDkxIhjqLTcHKb59f5bOHtpwJ
xATAjFdPxE2G6UolAH6vltaPXnd6xheZCP9mJyo5xY6YST+B+tpDCoBatfVx3Ase
vDFVCz34cHnbIIQG+xLEn6QtbYglORhSXorsAXevlxBBMcLqC9dY0N8bR+8Qbk1x
vBPYlRLO2wD4nH8mX5tKKGPjFZBnpumUssx0+7Abd2XA5SL4PsHMTIJpiOic6Vkq
1TiNgScsO4hImdfkSOKGLnSfte5hiGtW0dvj9Cvacp29G3uRhHu9NrCKyplVtjKT
7xfxr6hlH5BmSivEDZqqmNusILqBcZQqrAtZL213Bq9L01bHPI/MGW9WOutyIqFI
3abeCctS6d2GIvSraDzOR0hilOakwwjHHJ+sXcOULt/jW1YoEY9zll0lqfCrLTMX
fzWaM6qZ6xkDZjzW+OJmDtt2OurTfd0aAntP1HK5twIDAQABMA0GCSqGSIb3DQEB
CwUAA4ICAQC3P7hLHdoB+cF2q+7+C2LNC5F1jYd0/EHmWwWaFHPJEEdzKL1QLiUg
vcqkKa+9k+s3SXT1cXXkGoY0B/aW0GkS/nc49HfJwdd4R5ggRsw2P532TDPFae41
A5Pyr3xr1sZozMzfjX+Usz2tAlfGrST6ohWl6rXP3/beYj4QaRmCpAQVuOdFAewH
4csjIw2Au7/8JLsRYRNVb7CzUfotX/YosKrW+S2SSy924Kui57KT5RnSfZnxjcpN
lNCkgnPjHNYaixEQ38zIhNC92fgCpVa6Ly+VOc6UsQTWVUDU1zpTwJ7oyXKUFpBC
/yzM8JvOePjgN9a5g74Nk5bQ18Pkj0lV5Sz8Lh9MHukQSxzTitDqL0ZJRd2lTwAe
uIuWIN+MWqwdDSB1uDTOVR1evn3aB7n92BlWMnCkSCo5i6E5PKnP2MYCMPCWWjh8
bUotHVxW1ZLkTjq/SB1Y+N+Og045DqF6VoMcANF+zzy6NR6Y7G2Nrklui+Fy2lyx
wwk3FWWaCsVZQfxQRZ+GSz7bahuVCWC4BG/vckfXRJjKFONYPXBNFRC5SO69I5lT
Dlj55H4wFnipqgcvXDI92yKujNNnWwfojan2FLcTFixzMxNd70DBcrnmkrebixgN
Oh/d49qRQq4dqNL4saiqqQG/3Xa5UD4kb+4uUmSxlD6d91d2spgYsA==
-----END CERTIFICATE-----
